target datalayout = "e-m:e-p270:32:32-p271:32:32-p272:64:64-i64:64-i128:128-f80:128-n8:16:32:64-S128"
target triple = "x86_64-pc-linux-gnu"

%struct.MemBuffer = type { i64, i64, i64, i64, ptr }
%struct.WebPDemuxer = type { %struct.MemBuffer, i32, i32, i32, i32, i32, i32, i32, i32, ptr, ptr, ptr, ptr }
%struct.Frame = type { i32, i32, i32, i32, i32, i32, i32, i32, i32, i32, [2 x %struct.ChunkData], ptr }
%struct.ChunkData = type { i64, i64 }

; Function Attrs: nounwind uwtable
define internal i32 @AddFrame(ptr noundef %0, ptr noundef %1) #0 {
  %3 = alloca i32, align 4
  %4 = alloca ptr, align 8
  %5 = alloca ptr, align 8
  %6 = alloca ptr, align 8
  %7 = alloca i32, align 4
  store ptr %0, ptr %4, align 8, !tbaa !16
  store ptr %1, ptr %5, align 8, !tbaa !40
  call void @llvm.lifetime.start.p0(i64 8, ptr %6) #7
  %8 = load ptr, ptr %4, align 8, !tbaa !16
  %9 = getelementptr inbounds nuw %struct.WebPDemuxer, ptr %8, i32 0, i32 10
  %10 = load ptr, ptr %9, align 8, !tbaa !51
  %11 = load ptr, ptr %10, align 8, !tbaa !40
  store ptr %11, ptr %6, align 8, !tbaa !40
  %12 = load ptr, ptr %6, align 8, !tbaa !40
  %13 = icmp ne ptr %12, null
  br i1 %13, label %14, label %20

14:                                               ; preds = %2
  %15 = load ptr, ptr %6, align 8, !tbaa !40
  %16 = getelementptr inbounds nuw %struct.Frame, ptr %15, i32 0, i32 9
  %17 = load i32, ptr %16, align 4, !tbaa !90
  %18 = icmp ne i32 %17, 0
  br i1 %18, label %20, label %19

19:                                               ; preds = %14
  store i32 0, ptr %3, align 4
  store i32 1, ptr %7, align 4
  br label %31

20:                                               ; preds = %14, %2
  %21 = load ptr, ptr %5, align 8, !tbaa !40
  %22 = load ptr, ptr %4, align 8, !tbaa !16
  %23 = getelementptr inbounds nuw %struct.WebPDemuxer, ptr %22, i32 0, i32 10
  %24 = load ptr, ptr %23, align 8, !tbaa !51
  store ptr %21, ptr %24, align 8, !tbaa !40
  %25 = load ptr, ptr %5, align 8, !tbaa !40
  %26 = getelementptr inbounds nuw %struct.Frame, ptr %25, i32 0, i32 11
  store ptr null, ptr %26, align 8, !tbaa !56
  %27 = load ptr, ptr %5, align 8, !tbaa !40
  %28 = getelementptr inbounds nuw %struct.Frame, ptr %27, i32 0, i32 11
  %29 = load ptr, ptr %4, align 8, !tbaa !16
  %30 = getelementptr inbounds nuw %struct.WebPDemuxer, ptr %29, i32 0, i32 10
  store ptr %28, ptr %30, align 8, !tbaa !51
  store i32 1, ptr %3, align 4
  store i32 1, ptr %7, align 4
  br label %31

31:                                               ; preds = %20, %19
  call void @llvm.lifetime.end.p0(i64 8, ptr %6) #7
  %32 = load i32, ptr %3, align 4
  ret i32 %32
}

; Function Attrs: inlinehint nounwind uwtable
define internal i64 @MemDataSize(ptr noundef %0) #4 {
  %2 = alloca ptr, align 8
  store ptr %0, ptr %2, align 8, !tbaa !10
  %3 = load ptr, ptr %2, align 8, !tbaa !10
  %4 = getelementptr inbounds nuw %struct.MemBuffer, ptr %3, i32 0, i32 1
  %5 = load i64, ptr %4, align 8, !tbaa !36
  %6 = load ptr, ptr %2, align 8, !tbaa !10
  %7 = getelementptr inbounds nuw %struct.MemBuffer, ptr %6, i32 0, i32 0
  %8 = load i64, ptr %7, align 8, !tbaa !54
  %9 = sub i64 %5, %8
  ret i64 %9
}

; Function Attrs: inlinehint nounwind uwtable
define internal i32 @SizeIsInvalid(ptr noundef %0, i64 noundef %1) #4 {
  %3 = alloca ptr, align 8
  %4 = alloca i64, align 8
  store ptr %0, ptr %3, align 8, !tbaa !10
  store i64 %1, ptr %4, align 8, !tbaa !35
  %5 = load i64, ptr %4, align 8, !tbaa !35
  %6 = load ptr, ptr %3, align 8, !tbaa !10
  %7 = getelementptr inbounds nuw %struct.MemBuffer, ptr %6, i32 0, i32 2
  %8 = load i64, ptr %7, align 8, !tbaa !20
  %9 = load ptr, ptr %3, align 8, !tbaa !10
  %10 = getelementptr inbounds nuw %struct.MemBuffer, ptr %9, i32 0, i32 0
  %11 = load i64, ptr %10, align 8, !tbaa !54
  %12 = sub i64 %8, %11
  %13 = icmp ugt i64 %5, %12
  %14 = zext i1 %13 to i32
  ret i32 %14
}

; Function Attrs: nounwind uwtable
define internal i32 @ParseSingleImage(ptr noundef %0) #0 {
  %2 = alloca i32, align 4
  %3 = alloca ptr, align 8
  %4 = alloca i64, align 8
  %5 = alloca ptr, align 8
  %6 = alloca ptr, align 8
  %7 = alloca i32, align 4
  %8 = alloca i32, align 4
  %9 = alloca i32, align 4
  %10 = alloca i32, align 4
  store ptr %0, ptr %3, align 8, !tbaa !16
  call void @llvm.lifetime.start.p0(i64 8, ptr %4) #7
  store i64 8, ptr %4, align 8, !tbaa !35
  call void @llvm.lifetime.start.p0(i64 8, ptr %5) #7
  %11 = load ptr, ptr %3, align 8, !tbaa !16
  %12 = getelementptr inbounds nuw %struct.WebPDemuxer, ptr %11, i32 0, i32 0
  store ptr %12, ptr %5, align 8, !tbaa !10
  call void @llvm.lifetime.start.p0(i64 8, ptr %6) #7
  call void @llvm.lifetime.start.p0(i64 4, ptr %7) #7
  call void @llvm.lifetime.start.p0(i64 4, ptr %8) #7
  store i32 0, ptr %8, align 4, !tbaa !8
  %13 = load ptr, ptr %3, align 8, !tbaa !16
  %14 = getelementptr inbounds nuw %struct.WebPDemuxer, ptr %13, i32 0, i32 9
  %15 = load ptr, ptr %14, align 8, !tbaa !55
  %16 = icmp ne ptr %15, null
  br i1 %16, label %17, label %18

17:                                               ; preds = %1
  store i32 2, ptr %2, align 4
  store i32 1, ptr %9, align 4
  br label %123

18:                                               ; preds = %1
  %19 = load ptr, ptr %5, align 8, !tbaa !10
  %20 = call i32 @SizeIsInvalid(ptr noundef %19, i64 noundef 8)
  %21 = icmp ne i32 %20, 0
  br i1 %21, label %22, label %23

22:                                               ; preds = %18
  store i32 2, ptr %2, align 4
  store i32 1, ptr %9, align 4
  br label %123

23:                                               ; preds = %18
  %24 = load ptr, ptr %5, align 8, !tbaa !10
  %25 = call i64 @MemDataSize(ptr noundef %24)
  %26 = icmp ult i64 %25, 8
  br i1 %26, label %27, label %28

27:                                               ; preds = %23
  store i32 1, ptr %2, align 4
  store i32 1, ptr %9, align 4
  br label %123

28:                                               ; preds = %23
  %29 = call ptr @WebPSafeCalloc(i64 noundef 1, i64 noundef 80)
  store ptr %29, ptr %6, align 8, !tbaa !40
  %30 = load ptr, ptr %6, align 8, !tbaa !40
  %31 = icmp eq ptr %30, null
  br i1 %31, label %32, label %33

32:                                               ; preds = %28
  store i32 2, ptr %2, align 4
  store i32 1, ptr %9, align 4
  br label %123

33:                                               ; preds = %28
  %34 = load ptr, ptr %3, align 8, !tbaa !16
  %35 = getelementptr inbounds nuw %struct.WebPDemuxer, ptr %34, i32 0, i32 0
  %36 = load ptr, ptr %6, align 8, !tbaa !40
  %37 = call i32 @StoreFrame(i32 noundef 1, i32 noundef 0, ptr noundef %35, ptr noundef %36)
  store i32 %37, ptr %7, align 4, !tbaa !8
  %38 = load i32, ptr %7, align 4, !tbaa !8
  %39 = icmp ne i32 %38, 2
  br i1 %39, label %40, label %116

40:                                               ; preds = %33
  call void @llvm.lifetime.start.p0(i64 4, ptr %10) #7
  %41 = load ptr, ptr %3, align 8, !tbaa !16
  %42 = getelementptr inbounds nuw %struct.WebPDemuxer, ptr %41, i32 0, i32 3
  %43 = load i32, ptr %42, align 8, !tbaa !47
  %44 = and i32 %43, 16
  %45 = icmp ne i32 %44, 0
  %46 = xor i1 %45, true
  %47 = xor i1 %46, true
  %48 = zext i1 %47 to i32
  store i32 %48, ptr %10, align 4, !tbaa !8
  %49 = load i32, ptr %10, align 4, !tbaa !8
  %50 = icmp ne i32 %49, 0
  br i1 %50, label %69, label %51

51:                                               ; preds = %40
  %52 = load ptr, ptr %6, align 8, !tbaa !40
  %53 = getelementptr inbounds nuw %struct.Frame, ptr %52, i32 0, i32 10
  %54 = getelementptr inbounds [2 x %struct.ChunkData], ptr %53, i64 0, i64 1
  %55 = getelementptr inbounds nuw %struct.ChunkData, ptr %54, i32 0, i32 1
  %56 = load i64, ptr %55, align 8, !tbaa !84
  %57 = icmp ugt i64 %56, 0
  br i1 %57, label %58, label %69

58:                                               ; preds = %51
  %59 = load ptr, ptr %6, align 8, !tbaa !40
  %60 = getelementptr inbounds nuw %struct.Frame, ptr %59, i32 0, i32 10
  %61 = getelementptr inbounds [2 x %struct.ChunkData], ptr %60, i64 0, i64 1
  %62 = getelementptr inbounds nuw %struct.ChunkData, ptr %61, i32 0, i32 0
  store i64 0, ptr %62, align 8, !tbaa !83
  %63 = load ptr, ptr %6, align 8, !tbaa !40
  %64 = getelementptr inbounds nuw %struct.Frame, ptr %63, i32 0, i32 10
  %65 = getelementptr inbounds [2 x %struct.ChunkData], ptr %64, i64 0, i64 1
  %66 = getelementptr inbounds nuw %struct.ChunkData, ptr %65, i32 0, i32 1
  store i64 0, ptr %66, align 8, !tbaa !84
  %67 = load ptr, ptr %6, align 8, !tbaa !40
  %68 = getelementptr inbounds nuw %struct.Frame, ptr %67, i32 0, i32 4
  store i32 0, ptr %68, align 8, !tbaa !46
  br label %69

69:                                               ; preds = %58, %51, %40
  %70 = load ptr, ptr %3, align 8, !tbaa !16
  %71 = getelementptr inbounds nuw %struct.WebPDemuxer, ptr %70, i32 0, i32 2
  %72 = load i32, ptr %71, align 4, !tbaa !91
  %73 = icmp ne i32 %72, 0
  br i1 %73, label %106, label %74

74:                                               ; preds = %69
  %75 = load ptr, ptr %6, align 8, !tbaa !40
  %76 = getelementptr inbounds nuw %struct.Frame, ptr %75, i32 0, i32 2
  %77 = load i32, ptr %76, align 8, !tbaa !41
  %78 = icmp sgt i32 %77, 0
  br i1 %78, label %79, label %106

79:                                               ; preds = %74
  %80 = load ptr, ptr %6, align 8, !tbaa !40
  %81 = getelementptr inbounds nuw %struct.Frame, ptr %80, i32 0, i32 3
  %82 = load i32, ptr %81, align 4, !tbaa !44
  %83 = icmp sgt i32 %82, 0
  br i1 %83, label %84, label %106

84:                                               ; preds = %79
  %85 = load ptr, ptr %3, align 8, !tbaa !16
  %86 = getelementptr inbounds nuw %struct.WebPDemuxer, ptr %85, i32 0, i32 1
  store i32 1, ptr %86, align 8, !tbaa !25
  %87 = load ptr, ptr %6, align 8, !tbaa !40
  %88 = getelementptr inbounds nuw %struct.Frame, ptr %87, i32 0, i32 2
  %89 = load i32, ptr %88, align 8, !tbaa !41
  %90 = load ptr, ptr %3, align 8, !tbaa !16
  %91 = getelementptr inbounds nuw %struct.WebPDemuxer, ptr %90, i32 0, i32 4
  store i32 %89, ptr %91, align 4, !tbaa !43
  %92 = load ptr, ptr %6, align 8, !tbaa !40
  %93 = getelementptr inbounds nuw %struct.Frame, ptr %92, i32 0, i32 3
  %94 = load i32, ptr %93, align 4, !tbaa !44
  %95 = load ptr, ptr %3, align 8, !tbaa !16
  %96 = getelementptr inbounds nuw %struct.WebPDemuxer, ptr %95, i32 0, i32 5
  store i32 %94, ptr %96, align 8, !tbaa !45
  %97 = load ptr, ptr %6, align 8, !tbaa !40
  %98 = getelementptr inbounds nuw %struct.Frame, ptr %97, i32 0, i32 4
  %99 = load i32, ptr %98, align 8, !tbaa !46
  %100 = icmp ne i32 %99, 0
  %101 = select i1 %100, i32 16, i32 0
  %102 = load ptr, ptr %3, align 8, !tbaa !16
  %103 = getelementptr inbounds nuw %struct.WebPDemuxer, ptr %102, i32 0, i32 3
  %104 = load i32, ptr %103, align 8, !tbaa !47
  %105 = or i32 %104, %101
  store i32 %105, ptr %103, align 8, !tbaa !47
  br label %106

106:                                              ; preds = %84, %79, %74, %69
  %107 = load ptr, ptr %3, align 8, !tbaa !16
  %108 = load ptr, ptr %6, align 8, !tbaa !40
  %109 = call i32 @AddFrame(ptr noundef %107, ptr noundef %108)
  %110 = icmp ne i32 %109, 0
  br i1 %110, label %112, label %111

111:                                              ; preds = %106
  store i32 2, ptr %7, align 4, !tbaa !8
  br label %115

112:                                              ; preds = %106
  store i32 1, ptr %8, align 4, !tbaa !8
  %113 = load ptr, ptr %3, align 8, !tbaa !16
  %114 = getelementptr inbounds nuw %struct.WebPDemuxer, ptr %113, i32 0, i32 8
  store i32 1, ptr %114, align 4, !tbaa !48
  br label %115

115:                                              ; preds = %112, %111
  call void @llvm.lifetime.end.p0(i64 4, ptr %10) #7
  br label %116

116:                                              ; preds = %115, %33
  %117 = load i32, ptr %8, align 4, !tbaa !8
  %118 = icmp ne i32 %117, 0
  br i1 %118, label %121, label %119

119:                                              ; preds = %116
  %120 = load ptr, ptr %6, align 8, !tbaa !40
  call void @WebPSafeFree(ptr noundef %120)
  br label %121

121:                                              ; preds = %119, %116
  %122 = load i32, ptr %7, align 4, !tbaa !8
  store i32 %122, ptr %2, align 4
  store i32 1, ptr %9, align 4
  br label %123

123:                                              ; preds = %121, %32, %27, %22, %17
  call void @llvm.lifetime.end.p0(i64 4, ptr %8) #7
  call void @llvm.lifetime.end.p0(i64 4, ptr %7) #7
  call void @llvm.lifetime.end.p0(i64 8, ptr %6) #7
  call void @llvm.lifetime.end.p0(i64 8, ptr %5) #7
  call void @llvm.lifetime.end.p0(i64 8, ptr %4) #7
  %124 = load i32, ptr %2, align 4
  ret i32 %124
}