; Function Attrs: nounwind uwtable
define internal range(i32 0, 3) i32 @ParseSingleImage(ptr noundef captures(none) %0) #1 {
  %2 = getelementptr inbounds nuw i8, ptr %0, i64 72
  %3 = load ptr, ptr %2, align 8, !tbaa !50
  %.not = icmp eq ptr %3, null
  br i1 %.not, label %4, label %56

4:                                                ; preds = %1
  %.val45 = load i64, ptr %0, align 8, !tbaa !89
  %5 = getelementptr i8, ptr %0, i64 16
  %.val46 = load i64, ptr %5, align 8, !tbaa !90
  %6 = sub i64 %.val46, %.val45
  %7 = icmp ugt i64 %6, 7
  br i1 %7, label %8, label %56

8:                                                ; preds = %4
  %9 = getelementptr i8, ptr %0, i64 8
  %.val44 = load i64, ptr %9, align 8, !tbaa !91
  %10 = sub i64 %.val44, %.val45
  %11 = icmp ult i64 %10, 8
  br i1 %11, label %56, label %12

12:                                               ; preds = %8
  %13 = tail call ptr @WebPSafeCalloc(i64 noundef 1, i64 noundef 80) #13
  %14 = icmp eq ptr %13, null
  br i1 %14, label %56, label %15

15:                                               ; preds = %12
  %16 = tail call fastcc i32 @StoreFrame(i32 noundef 1, i32 noundef 0, ptr noundef nonnull %0, ptr noundef nonnull %13)
  %.not37 = icmp eq i32 %16, 2
  br i1 %.not37, label %AddFrame.exit.thread, label %17

17:                                               ; preds = %15
  %18 = getelementptr inbounds nuw i8, ptr %0, i64 48
  %19 = load i32, ptr %18, align 8, !tbaa !43
  %20 = and i32 %19, 16
  %.not38 = icmp eq i32 %20, 0
  br i1 %.not38, label %21, label %27

21:                                               ; preds = %17
  %22 = getelementptr inbounds nuw i8, ptr %13, i64 64
  %23 = load i64, ptr %22, align 8, !tbaa !30
  %.not39 = icmp eq i64 %23, 0
  br i1 %.not39, label %27, label %24

24:                                               ; preds = %21
  %25 = getelementptr inbounds nuw i8, ptr %13, i64 56
  %26 = getelementptr inbounds nuw i8, ptr %13, i64 16
  store i32 0, ptr %26, align 8, !tbaa !38
  tail call void @llvm.memset.p0.i64(ptr noundef nonnull align 8 dereferenceable(16) %25, i8 0, i64 16, i1 false)
  br label %27

27:                                               ; preds = %24, %21, %17
  %28 = getelementptr inbounds nuw i8, ptr %0, i64 44
  %29 = load i32, ptr %28, align 4, !tbaa !92
  %.not40 = icmp eq i32 %29, 0
  br i1 %.not40, label %30, label %46

30:                                               ; preds = %27
  %31 = getelementptr inbounds nuw i8, ptr %13, i64 8
  %32 = load i32, ptr %31, align 8, !tbaa !33
  %33 = icmp sgt i32 %32, 0
  br i1 %33, label %34, label %46

34:                                               ; preds = %30
  %35 = getelementptr inbounds nuw i8, ptr %13, i64 12
  %36 = load i32, ptr %35, align 4, !tbaa !36
  %37 = icmp sgt i32 %36, 0
  br i1 %37, label %38, label %46

38:                                               ; preds = %34
  %39 = getelementptr inbounds nuw i8, ptr %0, i64 40
  store i32 1, ptr %39, align 8, !tbaa !13
  %40 = getelementptr inbounds nuw i8, ptr %0, i64 52
  store i32 %32, ptr %40, align 4, !tbaa !22
  %41 = getelementptr inbounds nuw i8, ptr %0, i64 56
  store i32 %36, ptr %41, align 8, !tbaa !23
  %42 = getelementptr inbounds nuw i8, ptr %13, i64 16
  %43 = load i32, ptr %42, align 8, !tbaa !38
  %.not41 = icmp eq i32 %43, 0
  %44 = select i1 %.not41, i32 0, i32 16
  %45 = or i32 %44, %19
  store i32 %45, ptr %18, align 8, !tbaa !43
  br label %46

46:                                               ; preds = %38, %34, %30, %27
  %47 = getelementptr inbounds nuw i8, ptr %0, i64 80
  %48 = load ptr, ptr %47, align 8, !tbaa !24
  %49 = load ptr, ptr %48, align 8, !tbaa !41
  %.not.i = icmp eq ptr %49, null
  br i1 %.not.i, label %53, label %50

50:                                               ; preds = %46
  %51 = getelementptr inbounds nuw i8, ptr %49, i64 36
  %52 = load i32, ptr %51, align 4, !tbaa !40
  %.not9.i = icmp eq i32 %52, 0
  br i1 %.not9.i, label %AddFrame.exit.thread, label %53

53:                                               ; preds = %46, %50
  store ptr %13, ptr %48, align 8, !tbaa !41
  %54 = getelementptr inbounds nuw i8, ptr %13, i64 72
  store ptr null, ptr %54, align 8, !tbaa !42
  store ptr %54, ptr %47, align 8, !tbaa !24
  %55 = getelementptr inbounds nuw i8, ptr %0, i64 68
  store i32 1, ptr %55, align 4, !tbaa !44
  br label %56

AddFrame.exit.thread:                             ; preds = %50, %15
  tail call void @WebPSafeFree(ptr noundef nonnull %13) #13
  br label %56

56:                                               ; preds = %53, %AddFrame.exit.thread, %12, %8, %4, %1
  %.0 = phi i32 [ 2, %1 ], [ 2, %4 ], [ 1, %8 ], [ 2, %12 ], [ 2, %AddFrame.exit.thread ], [ %16, %53 ]
  ret i32 %.0
}